; Function Attrs: nounwind uwtable
define hidden noundef i32 @mbedtls_mpi_shift_r(ptr noundef readonly captures(none) %0, i64 noundef %1) local_unnamed_addr #0 {
  %3 = getelementptr inbounds nuw i8, ptr %0, i64 10
  %4 = load i16, ptr %3, align 2, !tbaa !3
  %.not = icmp eq i16 %4, 0
  br i1 %.not, label %8, label %5

5:                                                ; preds = %2
  %6 = load ptr, ptr %0, align 8, !tbaa !12
  %7 = zext i16 %4 to i64
  tail call void @mbedtls_mpi_core_shift_r(ptr noundef %6, i64 noundef %7, i64 noundef %1) #16
  br label %8

8:                                                ; preds = %5, %2
  ret i32 0
}